target datalayout = "e-m:e-p270:32:32-p271:32:32-p272:64:64-i64:64-i128:128-f80:128-n8:16:32:64-S128"
target triple = "x86_64-pc-linux-gnu"

%struct.curltime = type { i64, i32 }
%struct.Curl_tree = type { ptr, ptr, ptr, ptr, %struct.curltime, ptr }

@Curl_splayremove.KEY_NOTUSED = internal constant { i64, i32, [4 x i8] } { i64 -1, i32 -1, [4 x i8] zeroinitializer }, align 8

; Function Attrs: nounwind uwtable
define hidden i32 @Curl_splayremove(ptr noundef %0, ptr noundef %1, ptr noundef %2) #0 {
  %4 = alloca i32, align 4
  %5 = alloca ptr, align 8
  %6 = alloca ptr, align 8
  %7 = alloca ptr, align 8
  %8 = alloca ptr, align 8
  %9 = alloca i32, align 4
  store ptr %0, ptr %5, align 8, !tbaa !3
  store ptr %1, ptr %6, align 8, !tbaa !3
  store ptr %2, ptr %7, align 8, !tbaa !19
  call void @llvm.lifetime.start.p0(i64 8, ptr %8) #4
  %10 = load ptr, ptr %5, align 8, !tbaa !3
  %11 = icmp ne ptr %10, null
  br i1 %11, label %13, label %12

12:                                               ; preds = %3
  store i32 1, ptr %4, align 4
  store i32 1, ptr %9, align 4
  br label %134

13:                                               ; preds = %3
  br label %14

14:                                               ; preds = %13
  br label %15

15:                                               ; preds = %14
  br label %16

16:                                               ; preds = %15
  %17 = load ptr, ptr %6, align 8, !tbaa !3
  %18 = getelementptr inbounds nuw %struct.Curl_tree, ptr %17, i32 0, i32 4
  %19 = load i64, ptr @Curl_splayremove.KEY_NOTUSED, align 8
  %20 = load i32, ptr getelementptr inbounds nuw ({ i64, i32 }, ptr @Curl_splayremove.KEY_NOTUSED, i32 0, i32 1), align 8
  %21 = getelementptr inbounds nuw { i64, i32 }, ptr %18, i32 0, i32 0
  %22 = load i64, ptr %21, align 8
  %23 = getelementptr inbounds nuw { i64, i32 }, ptr %18, i32 0, i32 1
  %24 = load i32, ptr %23, align 8
  %25 = call i64 @Curl_timediff_us(i64 %19, i32 %20, i64 %22, i32 %24)
  %26 = icmp eq i64 %25, 0
  br i1 %26, label %27, label %54

27:                                               ; preds = %16
  %28 = load ptr, ptr %6, align 8, !tbaa !3
  %29 = getelementptr inbounds nuw %struct.Curl_tree, ptr %28, i32 0, i32 2
  %30 = load ptr, ptr %29, align 8, !tbaa !17
  %31 = load ptr, ptr %6, align 8, !tbaa !3
  %32 = icmp eq ptr %30, %31
  br i1 %32, label %33, label %34

33:                                               ; preds = %27
  store i32 3, ptr %4, align 4
  store i32 1, ptr %9, align 4
  br label %134

34:                                               ; preds = %27
  %35 = load ptr, ptr %6, align 8, !tbaa !3
  %36 = getelementptr inbounds nuw %struct.Curl_tree, ptr %35, i32 0, i32 2
  %37 = load ptr, ptr %36, align 8, !tbaa !17
  %38 = load ptr, ptr %6, align 8, !tbaa !3
  %39 = getelementptr inbounds nuw %struct.Curl_tree, ptr %38, i32 0, i32 3
  %40 = load ptr, ptr %39, align 8, !tbaa !18
  %41 = getelementptr inbounds nuw %struct.Curl_tree, ptr %40, i32 0, i32 2
  store ptr %37, ptr %41, align 8, !tbaa !17
  %42 = load ptr, ptr %6, align 8, !tbaa !3
  %43 = getelementptr inbounds nuw %struct.Curl_tree, ptr %42, i32 0, i32 3
  %44 = load ptr, ptr %43, align 8, !tbaa !18
  %45 = load ptr, ptr %6, align 8, !tbaa !3
  %46 = getelementptr inbounds nuw %struct.Curl_tree, ptr %45, i32 0, i32 2
  %47 = load ptr, ptr %46, align 8, !tbaa !17
  %48 = getelementptr inbounds nuw %struct.Curl_tree, ptr %47, i32 0, i32 3
  store ptr %44, ptr %48, align 8, !tbaa !18
  %49 = load ptr, ptr %6, align 8, !tbaa !3
  %50 = load ptr, ptr %6, align 8, !tbaa !3
  %51 = getelementptr inbounds nuw %struct.Curl_tree, ptr %50, i32 0, i32 2
  store ptr %49, ptr %51, align 8, !tbaa !17
  %52 = load ptr, ptr %5, align 8, !tbaa !3
  %53 = load ptr, ptr %7, align 8, !tbaa !19
  store ptr %52, ptr %53, align 8, !tbaa !3
  store i32 0, ptr %4, align 4
  store i32 1, ptr %9, align 4
  br label %134

54:                                               ; preds = %16
  %55 = load ptr, ptr %6, align 8, !tbaa !3
  %56 = getelementptr inbounds nuw %struct.Curl_tree, ptr %55, i32 0, i32 4
  %57 = load ptr, ptr %5, align 8, !tbaa !3
  %58 = getelementptr inbounds nuw { i64, i32 }, ptr %56, i32 0, i32 0
  %59 = load i64, ptr %58, align 8
  %60 = getelementptr inbounds nuw { i64, i32 }, ptr %56, i32 0, i32 1
  %61 = load i32, ptr %60, align 8
  %62 = call ptr @Curl_splay(i64 %59, i32 %61, ptr noundef %57)
  store ptr %62, ptr %5, align 8, !tbaa !3
  br label %63

63:                                               ; preds = %54
  br label %64

64:                                               ; preds = %63
  br label %65

65:                                               ; preds = %64
  %66 = load ptr, ptr %5, align 8, !tbaa !3
  %67 = load ptr, ptr %6, align 8, !tbaa !3
  %68 = icmp ne ptr %66, %67
  br i1 %68, label %69, label %70

69:                                               ; preds = %65
  store i32 2, ptr %4, align 4
  store i32 1, ptr %9, align 4
  br label %134

70:                                               ; preds = %65
  %71 = load ptr, ptr %5, align 8, !tbaa !3
  %72 = getelementptr inbounds nuw %struct.Curl_tree, ptr %71, i32 0, i32 2
  %73 = load ptr, ptr %72, align 8, !tbaa !17
  store ptr %73, ptr %8, align 8, !tbaa !3
  %74 = load ptr, ptr %8, align 8, !tbaa !3
  %75 = load ptr, ptr %5, align 8, !tbaa !3
  %76 = icmp ne ptr %74, %75
  br i1 %76, label %77, label %102

77:                                               ; preds = %70
  %78 = load ptr, ptr %8, align 8, !tbaa !3
  %79 = getelementptr inbounds nuw %struct.Curl_tree, ptr %78, i32 0, i32 4
  %80 = load ptr, ptr %5, align 8, !tbaa !3
  %81 = getelementptr inbounds nuw %struct.Curl_tree, ptr %80, i32 0, i32 4
  call void @llvm.memcpy.p0.p0.i64(ptr align 8 %79, ptr align 8 %81, i64 16, i1 false), !tbaa.struct !15
  %82 = load ptr, ptr %5, align 8, !tbaa !3
  %83 = getelementptr inbounds nuw %struct.Curl_tree, ptr %82, i32 0, i32 1
  %84 = load ptr, ptr %83, align 8, !tbaa !8
  %85 = load ptr, ptr %8, align 8, !tbaa !3
  %86 = getelementptr inbounds nuw %struct.Curl_tree, ptr %85, i32 0, i32 1
  store ptr %84, ptr %86, align 8, !tbaa !8
  %87 = load ptr, ptr %5, align 8, !tbaa !3
  %88 = getelementptr inbounds nuw %struct.Curl_tree, ptr %87, i32 0, i32 0
  %89 = load ptr, ptr %88, align 8, !tbaa !13
  %90 = load ptr, ptr %8, align 8, !tbaa !3
  %91 = getelementptr inbounds nuw %struct.Curl_tree, ptr %90, i32 0, i32 0
  store ptr %89, ptr %91, align 8, !tbaa !13
  %92 = load ptr, ptr %5, align 8, !tbaa !3
  %93 = getelementptr inbounds nuw %struct.Curl_tree, ptr %92, i32 0, i32 3
  %94 = load ptr, ptr %93, align 8, !tbaa !18
  %95 = load ptr, ptr %8, align 8, !tbaa !3
  %96 = getelementptr inbounds nuw %struct.Curl_tree, ptr %95, i32 0, i32 3
  store ptr %94, ptr %96, align 8, !tbaa !18
  %97 = load ptr, ptr %8, align 8, !tbaa !3
  %98 = load ptr, ptr %5, align 8, !tbaa !3
  %99 = getelementptr inbounds nuw %struct.Curl_tree, ptr %98, i32 0, i32 3
  %100 = load ptr, ptr %99, align 8, !tbaa !18
  %101 = getelementptr inbounds nuw %struct.Curl_tree, ptr %100, i32 0, i32 2
  store ptr %97, ptr %101, align 8, !tbaa !17
  br label %131

102:                                              ; preds = %70
  %103 = load ptr, ptr %5, align 8, !tbaa !3
  %104 = getelementptr inbounds nuw %struct.Curl_tree, ptr %103, i32 0, i32 0
  %105 = load ptr, ptr %104, align 8, !tbaa !13
  %106 = icmp ne ptr %105, null
  br i1 %106, label %111, label %107

107:                                              ; preds = %102
  %108 = load ptr, ptr %5, align 8, !tbaa !3
  %109 = getelementptr inbounds nuw %struct.Curl_tree, ptr %108, i32 0, i32 1
  %110 = load ptr, ptr %109, align 8, !tbaa !8
  store ptr %110, ptr %8, align 8, !tbaa !3
  br label %130

111:                                              ; preds = %102
  %112 = load ptr, ptr %6, align 8, !tbaa !3
  %113 = getelementptr inbounds nuw %struct.Curl_tree, ptr %112, i32 0, i32 4
  %114 = load ptr, ptr %5, align 8, !tbaa !3
  %115 = getelementptr inbounds nuw %struct.Curl_tree, ptr %114, i32 0, i32 0
  %116 = load ptr, ptr %115, align 8, !tbaa !13
  %117 = getelementptr inbounds nuw { i64, i32 }, ptr %113, i32 0, i32 0
  %118 = load i64, ptr %117, align 8
  %119 = getelementptr inbounds nuw { i64, i32 }, ptr %113, i32 0, i32 1
  %120 = load i32, ptr %119, align 8
  %121 = call ptr @Curl_splay(i64 %118, i32 %120, ptr noundef %116)
  store ptr %121, ptr %8, align 8, !tbaa !3
  br label %122

122:                                              ; preds = %111
  br label %123

123:                                              ; preds = %122
  br label %124

124:                                              ; preds = %123
  %125 = load ptr, ptr %5, align 8, !tbaa !3
  %126 = getelementptr inbounds nuw %struct.Curl_tree, ptr %125, i32 0, i32 1
  %127 = load ptr, ptr %126, align 8, !tbaa !8
  %128 = load ptr, ptr %8, align 8, !tbaa !3
  %129 = getelementptr inbounds nuw %struct.Curl_tree, ptr %128, i32 0, i32 1
  store ptr %127, ptr %129, align 8, !tbaa !8
  br label %130

130:                                              ; preds = %124, %107
  br label %131

131:                                              ; preds = %130, %77
  %132 = load ptr, ptr %8, align 8, !tbaa !3
  %133 = load ptr, ptr %7, align 8, !tbaa !19
  store ptr %132, ptr %133, align 8, !tbaa !3
  store i32 0, ptr %4, align 4
  store i32 1, ptr %9, align 4
  br label %134

134:                                              ; preds = %131, %69, %34, %33, %12
  call void @llvm.lifetime.end.p0(i64 8, ptr %8) #4
  %135 = load i32, ptr %4, align 4
  ret i32 %135
}