; Function Attrs: nounwind uwtable
define hidden range(i32 0, 4) i32 @Curl_splayremove(ptr noundef %0, ptr noundef %1, ptr noundef writeonly captures(none) %2) local_unnamed_addr #0 {
  %.not = icmp eq ptr %0, null
  br i1 %.not, label %51, label %4

4:                                                ; preds = %3
  %5 = getelementptr inbounds nuw i8, ptr %1, i64 32
  %6 = load i64, ptr %5, align 8
  %7 = getelementptr inbounds nuw i8, ptr %1, i64 40
  %8 = load i32, ptr %7, align 8
  %9 = tail call i64 @Curl_timediff_us(i64 -1, i32 -1, i64 %6, i32 %8) #7
  %10 = icmp eq i64 %9, 0
  br i1 %10, label %11, label %21

11:                                               ; preds = %4
  %12 = getelementptr inbounds nuw i8, ptr %1, i64 16
  %13 = load ptr, ptr %12, align 8, !tbaa !17
  %14 = icmp eq ptr %13, %1
  br i1 %14, label %51, label %15

15:                                               ; preds = %11
  %16 = getelementptr inbounds nuw i8, ptr %1, i64 24
  %17 = load ptr, ptr %16, align 8, !tbaa !18
  %18 = getelementptr inbounds nuw i8, ptr %17, i64 16
  store ptr %13, ptr %18, align 8, !tbaa !17
  %19 = load ptr, ptr %12, align 8, !tbaa !17
  %20 = getelementptr inbounds nuw i8, ptr %19, i64 24
  store ptr %17, ptr %20, align 8, !tbaa !18
  store ptr %1, ptr %12, align 8, !tbaa !17
  br label %.sink.split

21:                                               ; preds = %4
  %22 = load i64, ptr %5, align 8
  %23 = load i32, ptr %7, align 8
  %24 = tail call ptr @Curl_splay(i64 %22, i32 %23, ptr noundef nonnull %0)
  %.not44 = icmp eq ptr %24, %1
  br i1 %.not44, label %25, label %51

25:                                               ; preds = %21
  %26 = getelementptr inbounds nuw i8, ptr %24, i64 16
  %27 = load ptr, ptr %26, align 8, !tbaa !17
  %.not45 = icmp eq ptr %27, %1
  br i1 %.not45, label %39, label %28

28:                                               ; preds = %25
  %29 = getelementptr inbounds nuw i8, ptr %27, i64 32
  %30 = getelementptr inbounds nuw i8, ptr %24, i64 32
  tail call void @llvm.memcpy.p0.p0.i64(ptr noundef nonnull align 8 dereferenceable(16) %29, ptr noundef nonnull align 8 dereferenceable(16) %30, i64 16, i1 false), !tbaa.struct !14
  %31 = getelementptr inbounds nuw i8, ptr %24, i64 8
  %32 = load ptr, ptr %31, align 8, !tbaa !12
  %33 = getelementptr inbounds nuw i8, ptr %27, i64 8
  store ptr %32, ptr %33, align 8, !tbaa !12
  %34 = load ptr, ptr %24, align 8, !tbaa !3
  store ptr %34, ptr %27, align 8, !tbaa !3
  %35 = getelementptr inbounds nuw i8, ptr %24, i64 24
  %36 = load ptr, ptr %35, align 8, !tbaa !18
  %37 = getelementptr inbounds nuw i8, ptr %27, i64 24
  store ptr %36, ptr %37, align 8, !tbaa !18
  %38 = getelementptr inbounds nuw i8, ptr %36, i64 16
  store ptr %27, ptr %38, align 8, !tbaa !17
  br label %.sink.split

39:                                               ; preds = %25
  %40 = load ptr, ptr %24, align 8, !tbaa !3
  %.not46 = icmp eq ptr %40, null
  br i1 %.not46, label %41, label %44

41:                                               ; preds = %39
  %42 = getelementptr inbounds nuw i8, ptr %24, i64 8
  %43 = load ptr, ptr %42, align 8, !tbaa !12
  br label %.sink.split

44:                                               ; preds = %39
  %45 = load i64, ptr %5, align 8
  %46 = load i32, ptr %7, align 8
  %47 = tail call ptr @Curl_splay(i64 %45, i32 %46, ptr noundef nonnull %40)
  %48 = getelementptr inbounds nuw i8, ptr %24, i64 8
  %49 = load ptr, ptr %48, align 8, !tbaa !12
  %50 = getelementptr inbounds nuw i8, ptr %47, i64 8
  store ptr %49, ptr %50, align 8, !tbaa !12
  br label %.sink.split

.sink.split:                                      ; preds = %28, %44, %41, %15
  %.0.sink = phi ptr [ %0, %15 ], [ %27, %28 ], [ %47, %44 ], [ %43, %41 ]
  store ptr %.0.sink, ptr %2, align 8, !tbaa !13
  br label %51

51:                                               ; preds = %.sink.split, %21, %11, %3
  %.037 = phi i32 [ 1, %3 ], [ 3, %11 ], [ 2, %21 ], [ 0, %.sink.split ]
  ret i32 %.037
}